target datalayout = "e-m:e-p270:32:32-p271:32:32-p272:64:64-i64:64-i128:128-f80:128-n8:16:32:64-S128"
target triple = "x86_64-pc-linux-gnu"

%struct.FFDrawContext = type { ptr, i32, i32, [4 x i32], [4 x i8], [4 x i8], i8, i8, i32, i32, i32, [3 x [3 x double]] }
%struct.FFDrawColor = type { [4 x i8], [4 x %union.anon.2] }
%union.anon.2 = type { [4 x i32] }
%struct.AVChannelLayout = type { i32, i32, %union.anon.1, ptr }
%union.anon.1 = type { i64 }
%struct.AVRational = type { i32, i32 }
%struct.AVFrame = type { [8 x ptr], [8 x i32], ptr, i32, i32, i32, i32, i32, %struct.AVRational, i64, i64, %struct.AVRational, i32, ptr, i32, i32, [8 x ptr], ptr, i32, ptr, i32, i32, i32, i32, i32, i32, i32, i64, ptr, i32, ptr, ptr, i64, i64, i64, i64, ptr, %struct.AVChannelLayout, i64 }

; Function Attrs: nounwind uwtable
define internal void @pick_color16(ptr noundef %0, ptr noundef %1, ptr noundef %2, i32 noundef %3, i32 noundef %4, ptr noundef %5) #0 {
  %7 = alloca ptr, align 8
  %8 = alloca ptr, align 8
  %9 = alloca ptr, align 8
  %10 = alloca i32, align 4
  %11 = alloca i32, align 4
  %12 = alloca ptr, align 8
  %13 = alloca i32, align 4
  %14 = alloca i32, align 4
  store ptr %0, ptr %7, align 8, !tbaa !84
  store ptr %1, ptr %8, align 8, !tbaa !86
  store ptr %2, ptr %9, align 8, !tbaa !31
  store i32 %3, ptr %10, align 4, !tbaa !14
  store i32 %4, ptr %11, align 4, !tbaa !14
  store ptr %5, ptr %12, align 8, !tbaa !107
  call void @llvm.lifetime.start.p0(i64 4, ptr %13) #11
  call void @llvm.lifetime.start.p0(i64 4, ptr %14) #11
  %15 = load ptr, ptr %8, align 8, !tbaa !86
  %16 = getelementptr inbounds nuw %struct.FFDrawColor, ptr %15, i32 0, i32 0
  %17 = getelementptr inbounds [4 x i8], ptr %16, i64 0, i64 3
  store i8 -1, ptr %17, align 1, !tbaa !70
  store i32 0, ptr %13, align 4, !tbaa !14
  br label %18

18:                                               ; preds = %136, %6
  %19 = load i32, ptr %13, align 4, !tbaa !14
  %20 = load ptr, ptr %7, align 8, !tbaa !84
  %21 = getelementptr inbounds nuw %struct.FFDrawContext, ptr %20, i32 0, i32 2
  %22 = load i32, ptr %21, align 4, !tbaa !109
  %23 = icmp ult i32 %19, %22
  br i1 %23, label %24, label %139

24:                                               ; preds = %18
  %25 = load ptr, ptr %7, align 8, !tbaa !84
  %26 = getelementptr inbounds nuw %struct.FFDrawContext, ptr %25, i32 0, i32 2
  %27 = load i32, ptr %26, align 4, !tbaa !109
  %28 = icmp eq i32 %27, 1
  br i1 %28, label %29, label %80

29:                                               ; preds = %24
  store i32 0, ptr %14, align 4, !tbaa !14
  br label %30

30:                                               ; preds = %76, %29
  %31 = load i32, ptr %14, align 4, !tbaa !14
  %32 = icmp slt i32 %31, 4
  br i1 %32, label %33, label %79

33:                                               ; preds = %30
  %34 = load ptr, ptr %9, align 8, !tbaa !31
  %35 = getelementptr inbounds nuw %struct.AVFrame, ptr %34, i32 0, i32 0
  %36 = getelementptr inbounds [8 x ptr], ptr %35, i64 0, i64 0
  %37 = load ptr, ptr %36, align 8, !tbaa !12
  %38 = load i32, ptr %11, align 4, !tbaa !14
  %39 = load ptr, ptr %9, align 8, !tbaa !31
  %40 = getelementptr inbounds nuw %struct.AVFrame, ptr %39, i32 0, i32 1
  %41 = getelementptr inbounds [8 x i32], ptr %40, i64 0, i64 0
  %42 = load i32, ptr %41, align 8, !tbaa !14
  %43 = mul nsw i32 %38, %42
  %44 = sext i32 %43 to i64
  %45 = getelementptr inbounds i8, ptr %37, i64 %44
  %46 = load i32, ptr %10, align 4, !tbaa !14
  %47 = load ptr, ptr %7, align 8, !tbaa !84
  %48 = getelementptr inbounds nuw %struct.FFDrawContext, ptr %47, i32 0, i32 3
  %49 = getelementptr inbounds [4 x i32], ptr %48, i64 0, i64 0
  %50 = load i32, ptr %49, align 8, !tbaa !14
  %51 = mul nsw i32 %46, %50
  %52 = sext i32 %51 to i64
  %53 = getelementptr inbounds i8, ptr %45, i64 %52
  %54 = load i32, ptr %14, align 4, !tbaa !14
  %55 = mul nsw i32 %54, 2
  %56 = sext i32 %55 to i64
  %57 = getelementptr inbounds i8, ptr %53, i64 %56
  %58 = load i16, ptr %57, align 1, !tbaa !70
  %59 = zext i16 %58 to i32
  %60 = load ptr, ptr %12, align 8, !tbaa !107
  %61 = load i32, ptr %14, align 4, !tbaa !14
  %62 = sext i32 %61 to i64
  %63 = getelementptr inbounds i32, ptr %60, i64 %62
  store i32 %59, ptr %63, align 4, !tbaa !14
  %64 = load ptr, ptr %12, align 8, !tbaa !107
  %65 = load i32, ptr %14, align 4, !tbaa !14
  %66 = sext i32 %65 to i64
  %67 = getelementptr inbounds i32, ptr %64, i64 %66
  %68 = load i32, ptr %67, align 4, !tbaa !14
  %69 = trunc i32 %68 to i16
  %70 = load ptr, ptr %8, align 8, !tbaa !86
  %71 = getelementptr inbounds nuw %struct.FFDrawColor, ptr %70, i32 0, i32 1
  %72 = getelementptr inbounds [4 x %union.anon.2], ptr %71, i64 0, i64 0
  %73 = load i32, ptr %14, align 4, !tbaa !14
  %74 = sext i32 %73 to i64
  %75 = getelementptr inbounds [8 x i16], ptr %72, i64 0, i64 %74
  store i16 %69, ptr %75, align 2, !tbaa !70
  br label %76

76:                                               ; preds = %33
  %77 = load i32, ptr %14, align 4, !tbaa !14
  %78 = add nsw i32 %77, 1
  store i32 %78, ptr %14, align 4, !tbaa !14
  br label %30, !llvm.loop !113

79:                                               ; preds = %30
  br label %135

80:                                               ; preds = %24
  %81 = load ptr, ptr %9, align 8, !tbaa !31
  %82 = getelementptr inbounds nuw %struct.AVFrame, ptr %81, i32 0, i32 0
  %83 = load i32, ptr %13, align 4, !tbaa !14
  %84 = sext i32 %83 to i64
  %85 = getelementptr inbounds [8 x ptr], ptr %82, i64 0, i64 %84
  %86 = load ptr, ptr %85, align 8, !tbaa !12
  %87 = load i32, ptr %11, align 4, !tbaa !14
  %88 = load ptr, ptr %7, align 8, !tbaa !84
  %89 = getelementptr inbounds nuw %struct.FFDrawContext, ptr %88, i32 0, i32 5
  %90 = load i32, ptr %13, align 4, !tbaa !14
  %91 = sext i32 %90 to i64
  %92 = getelementptr inbounds [4 x i8], ptr %89, i64 0, i64 %91
  %93 = load i8, ptr %92, align 1, !tbaa !70
  %94 = zext i8 %93 to i32
  %95 = ashr i32 %87, %94
  %96 = load ptr, ptr %9, align 8, !tbaa !31
  %97 = getelementptr inbounds nuw %struct.AVFrame, ptr %96, i32 0, i32 1
  %98 = load i32, ptr %13, align 4, !tbaa !14
  %99 = sext i32 %98 to i64
  %100 = getelementptr inbounds [8 x i32], ptr %97, i64 0, i64 %99
  %101 = load i32, ptr %100, align 4, !tbaa !14
  %102 = mul nsw i32 %95, %101
  %103 = sext i32 %102 to i64
  %104 = getelementptr inbounds i8, ptr %86, i64 %103
  %105 = load i32, ptr %10, align 4, !tbaa !14
  %106 = load ptr, ptr %7, align 8, !tbaa !84
  %107 = getelementptr inbounds nuw %struct.FFDrawContext, ptr %106, i32 0, i32 4
  %108 = load i32, ptr %13, align 4, !tbaa !14
  %109 = sext i32 %108 to i64
  %110 = getelementptr inbounds [4 x i8], ptr %107, i64 0, i64 %109
  %111 = load i8, ptr %110, align 1, !tbaa !70
  %112 = zext i8 %111 to i32
  %113 = ashr i32 %105, %112
  %114 = mul nsw i32 %113, 2
  %115 = sext i32 %114 to i64
  %116 = getelementptr inbounds i8, ptr %104, i64 %115
  %117 = load i16, ptr %116, align 1, !tbaa !70
  %118 = zext i16 %117 to i32
  %119 = load ptr, ptr %12, align 8, !tbaa !107
  %120 = load i32, ptr %13, align 4, !tbaa !14
  %121 = sext i32 %120 to i64
  %122 = getelementptr inbounds i32, ptr %119, i64 %121
  store i32 %118, ptr %122, align 4, !tbaa !14
  %123 = load ptr, ptr %12, align 8, !tbaa !107
  %124 = load i32, ptr %13, align 4, !tbaa !14
  %125 = sext i32 %124 to i64
  %126 = getelementptr inbounds i32, ptr %123, i64 %125
  %127 = load i32, ptr %126, align 4, !tbaa !14
  %128 = trunc i32 %127 to i16
  %129 = load ptr, ptr %8, align 8, !tbaa !86
  %130 = getelementptr inbounds nuw %struct.FFDrawColor, ptr %129, i32 0, i32 1
  %131 = load i32, ptr %13, align 4, !tbaa !14
  %132 = sext i32 %131 to i64
  %133 = getelementptr inbounds [4 x %union.anon.2], ptr %130, i64 0, i64 %132
  %134 = getelementptr inbounds [8 x i16], ptr %133, i64 0, i64 0
  store i16 %128, ptr %134, align 4, !tbaa !70
  br label %135

135:                                              ; preds = %80, %79
  br label %136

136:                                              ; preds = %135
  %137 = load i32, ptr %13, align 4, !tbaa !14
  %138 = add nsw i32 %137, 1
  store i32 %138, ptr %13, align 4, !tbaa !14
  br label %18, !llvm.loop !114

139:                                              ; preds = %18
  call void @llvm.lifetime.end.p0(i64 4, ptr %14) #11
  call void @llvm.lifetime.end.p0(i64 4, ptr %13) #11
  ret void
}