; Function Attrs: nofree norecurse nosync nounwind memory(read, argmem: readwrite, inaccessiblemem: none) uwtable
define internal void @pick_color16(ptr noundef readonly captures(none) %0, ptr noundef writeonly captures(none) initializes((3, 4)) %1, ptr noundef readonly captures(none) %2, i32 noundef %3, i32 noundef %4, ptr noundef writeonly captures(none) %5) #7 {
  %7 = getelementptr inbounds nuw i8, ptr %1, i64 3
  store i8 -1, ptr %7, align 1, !tbaa !51
  %8 = getelementptr inbounds nuw i8, ptr %0, i64 12
  %9 = load i32, ptr %8, align 4, !tbaa !93
  %.not = icmp eq i32 %9, 0
  br i1 %.not, label %._crit_edge, label %.lr.ph

.lr.ph:                                           ; preds = %6
  %10 = getelementptr inbounds nuw i8, ptr %0, i64 36
  %11 = getelementptr inbounds nuw i8, ptr %2, i64 64
  %12 = getelementptr inbounds nuw i8, ptr %0, i64 32
  %13 = getelementptr inbounds nuw i8, ptr %1, i64 4
  %14 = getelementptr inbounds nuw i8, ptr %0, i64 16
  %15 = icmp eq i32 %9, 1
  br label %16

16:                                               ; preds = %.lr.ph, %.loopexit
  %indvars.iv39 = phi i64 [ 0, %.lr.ph ], [ %indvars.iv.next40, %.loopexit ]
  %17 = phi i1 [ %15, %.lr.ph ], [ false, %.loopexit ]
  br i1 %17, label %.preheader, label %33

.preheader:                                       ; preds = %16, %.preheader
  %indvars.iv = phi i64 [ %indvars.iv.next, %.preheader ], [ 0, %16 ]
  %18 = load ptr, ptr %2, align 8, !tbaa !83
  %19 = load i32, ptr %11, align 8, !tbaa !84
  %20 = mul nsw i32 %19, %4
  %21 = sext i32 %20 to i64
  %22 = getelementptr inbounds i8, ptr %18, i64 %21
  %23 = load i32, ptr %14, align 8, !tbaa !84
  %24 = mul nsw i32 %23, %3
  %25 = sext i32 %24 to i64
  %26 = getelementptr inbounds i8, ptr %22, i64 %25
  %27 = shl nuw nsw i64 %indvars.iv, 1
  %28 = getelementptr inbounds nuw i8, ptr %26, i64 %27
  %29 = load i16, ptr %28, align 1, !tbaa !51
  %30 = zext i16 %29 to i32
  %31 = getelementptr inbounds nuw i32, ptr %5, i64 %indvars.iv
  store i32 %30, ptr %31, align 4, !tbaa !84
  %32 = getelementptr inbounds nuw [8 x i16], ptr %13, i64 0, i64 %indvars.iv
  store i16 %29, ptr %32, align 2, !tbaa !51
  %indvars.iv.next = add nuw nsw i64 %indvars.iv, 1
  %exitcond.not = icmp eq i64 %indvars.iv.next, 4
  br i1 %exitcond.not, label %.loopexit, label %.preheader, !llvm.loop !97

33:                                               ; preds = %16
  %34 = getelementptr inbounds nuw [8 x ptr], ptr %2, i64 0, i64 %indvars.iv39
  %35 = load ptr, ptr %34, align 8, !tbaa !83
  %36 = getelementptr inbounds nuw [4 x i8], ptr %10, i64 0, i64 %indvars.iv39
  %37 = load i8, ptr %36, align 1, !tbaa !51
  %38 = zext nneg i8 %37 to i32
  %39 = ashr i32 %4, %38
  %40 = getelementptr inbounds nuw [8 x i32], ptr %11, i64 0, i64 %indvars.iv39
  %41 = load i32, ptr %40, align 4, !tbaa !84
  %42 = mul nsw i32 %39, %41
  %43 = sext i32 %42 to i64
  %44 = getelementptr inbounds i8, ptr %35, i64 %43
  %45 = getelementptr inbounds nuw [4 x i8], ptr %12, i64 0, i64 %indvars.iv39
  %46 = load i8, ptr %45, align 1, !tbaa !51
  %47 = zext nneg i8 %46 to i32
  %48 = ashr i32 %3, %47
  %49 = shl nsw i32 %48, 1
  %50 = sext i32 %49 to i64
  %51 = getelementptr inbounds i8, ptr %44, i64 %50
  %52 = load i16, ptr %51, align 1, !tbaa !51
  %53 = zext i16 %52 to i32
  %54 = getelementptr inbounds nuw i32, ptr %5, i64 %indvars.iv39
  store i32 %53, ptr %54, align 4, !tbaa !84
  %55 = getelementptr inbounds nuw [4 x %union.anon.2], ptr %13, i64 0, i64 %indvars.iv39
  store i16 %52, ptr %55, align 4, !tbaa !51
  br label %.loopexit

.loopexit:                                        ; preds = %.preheader, %33
  %indvars.iv.next40 = add nuw nsw i64 %indvars.iv39, 1
  %56 = load i32, ptr %8, align 4, !tbaa !93
  %57 = zext i32 %56 to i64
  %58 = icmp samesign ult i64 %indvars.iv.next40, %57
  br i1 %58, label %16, label %._crit_edge, !llvm.loop !98

._crit_edge:                                      ; preds = %.loopexit, %6
  ret void
}